; Function Attrs: mustprogress nounwind uwtable
define dso_local void @_ZNK5clang4ento19CXXBaseObjectRegion7ProfileERN4llvm16FoldingSetNodeIDE(ptr nocapture noundef nonnull readonly align 8 dereferenceable(64) %0, ptr noundef nonnull align 8 dereferenceable(144) %1) unnamed_addr #3 align 2 {
  %3 = getelementptr inbounds nuw i8, ptr %0, i64 56
  %.0.copyload.i.i.i.i = load i64, ptr %3, align 8
  %4 = and i64 %.0.copyload.i.i.i.i, -8
  %5 = inttoptr i64 %4 to ptr
  %6 = and i64 %.0.copyload.i.i.i.i, 4
  %7 = icmp ne i64 %6, 0
  %8 = getelementptr inbounds nuw i8, ptr %0, i64 48
  %9 = load ptr, ptr %8, align 8
  tail call void @_ZN5clang4ento19CXXBaseObjectRegion13ProfileRegionERN4llvm16FoldingSetNodeIDEPKNS_13CXXRecordDeclEbPKNS0_9MemRegionE(ptr noundef nonnull align 8 dereferenceable(144) %1, ptr noundef nonnull %5, i1 noundef zeroext %7, ptr noundef %9)
  ret void
}